target datalayout = "e-m:e-p270:32:32-p271:32:32-p272:64:64-i64:64-i128:128-f80:128-n8:16:32:64-S128"
target triple = "x86_64-pc-linux-gnu"

%struct.FunctionCallInfoBaseData = type { ptr, ptr, ptr, i32, i8, i16, [0 x %struct.NullableDatum] }
%struct.NullableDatum = type { i64, i8 }
%struct.BOX = type { %struct.Point, %struct.Point }
%struct.Point = type { double, double }

; Function Attrs: inlinehint nounwind uwtable
define internal i64 @PointerGetDatum(ptr noundef %0) #2 {
  %2 = alloca ptr, align 8
  store ptr %0, ptr %2, align 8
  %3 = load ptr, ptr %2, align 8
  %4 = ptrtoint ptr %3 to i64
  ret i64 %4
}

; Function Attrs: inlinehint nounwind uwtable
define internal zeroext i1 @float8_eq(double noundef %0, double noundef %1) #2 {
  %3 = alloca double, align 8
  %4 = alloca double, align 8
  store double %0, ptr %3, align 8
  store double %1, ptr %4, align 8
  %5 = load double, ptr %3, align 8
  %6 = call i1 @llvm.is.fpclass.f64(double %5, i32 3)
  br i1 %6, label %7, label %11

7:                                                ; preds = %2
  %8 = load double, ptr %4, align 8
  %9 = call i1 @llvm.is.fpclass.f64(double %8, i32 3)
  %10 = zext i1 %9 to i32
  br label %21

11:                                               ; preds = %2
  %12 = load double, ptr %4, align 8
  %13 = call i1 @llvm.is.fpclass.f64(double %12, i32 3)
  br i1 %13, label %18, label %14

14:                                               ; preds = %11
  %15 = load double, ptr %3, align 8
  %16 = load double, ptr %4, align 8
  %17 = fcmp oeq double %15, %16
  br label %18

18:                                               ; preds = %14, %11
  %19 = phi i1 [ false, %11 ], [ %17, %14 ]
  %20 = zext i1 %19 to i32
  br label %21

21:                                               ; preds = %18, %7
  %22 = phi i32 [ %10, %7 ], [ %20, %18 ]
  %23 = icmp ne i32 %22, 0
  ret i1 %23
}

; Function Attrs: inlinehint nounwind uwtable
define internal ptr @DatumGetPointer(i64 noundef %0) #2 {
  %2 = alloca i64, align 8
  store i64 %0, ptr %2, align 8
  %3 = load i64, ptr %2, align 8
  %4 = inttoptr i64 %3 to ptr
  ret ptr %4
}

; Function Attrs: inlinehint nounwind uwtable
define internal ptr @DatumGetBoxP(i64 noundef %0) #2 {
  %2 = alloca i64, align 8
  store i64 %0, ptr %2, align 8
  %3 = load i64, ptr %2, align 8
  %4 = call ptr @DatumGetPointer(i64 noundef %3)
  ret ptr %4
}

; Function Attrs: nounwind uwtable
define dso_local i64 @gist_box_same(ptr noundef %0) #0 {
  %2 = alloca ptr, align 8
  %3 = alloca ptr, align 8
  %4 = alloca ptr, align 8
  %5 = alloca ptr, align 8
  store ptr %0, ptr %2, align 8
  call void @llvm.lifetime.start.p0(i64 8, ptr %3) #10
  %6 = load ptr, ptr %2, align 8
  %7 = getelementptr inbounds nuw %struct.FunctionCallInfoBaseData, ptr %6, i32 0, i32 6
  %8 = getelementptr inbounds [0 x %struct.NullableDatum], ptr %7, i64 0, i64 0
  %9 = getelementptr inbounds nuw %struct.NullableDatum, ptr %8, i32 0, i32 0
  %10 = load i64, ptr %9, align 8
  %11 = call ptr @DatumGetBoxP(i64 noundef %10)
  store ptr %11, ptr %3, align 8
  call void @llvm.lifetime.start.p0(i64 8, ptr %4) #10
  %12 = load ptr, ptr %2, align 8
  %13 = getelementptr inbounds nuw %struct.FunctionCallInfoBaseData, ptr %12, i32 0, i32 6
  %14 = getelementptr inbounds [0 x %struct.NullableDatum], ptr %13, i64 0, i64 1
  %15 = getelementptr inbounds nuw %struct.NullableDatum, ptr %14, i32 0, i32 0
  %16 = load i64, ptr %15, align 8
  %17 = call ptr @DatumGetBoxP(i64 noundef %16)
  store ptr %17, ptr %4, align 8
  call void @llvm.lifetime.start.p0(i64 8, ptr %5) #10
  %18 = load ptr, ptr %2, align 8
  %19 = getelementptr inbounds nuw %struct.FunctionCallInfoBaseData, ptr %18, i32 0, i32 6
  %20 = getelementptr inbounds [0 x %struct.NullableDatum], ptr %19, i64 0, i64 2
  %21 = getelementptr inbounds nuw %struct.NullableDatum, ptr %20, i32 0, i32 0
  %22 = load i64, ptr %21, align 8
  %23 = call ptr @DatumGetPointer(i64 noundef %22)
  store ptr %23, ptr %5, align 8
  %24 = load ptr, ptr %3, align 8
  %25 = icmp ne ptr %24, null
  br i1 %25, label %26, label %73

26:                                               ; preds = %1
  %27 = load ptr, ptr %4, align 8
  %28 = icmp ne ptr %27, null
  br i1 %28, label %29, label %73

29:                                               ; preds = %26
  %30 = load ptr, ptr %3, align 8
  %31 = getelementptr inbounds nuw %struct.BOX, ptr %30, i32 0, i32 1
  %32 = getelementptr inbounds nuw %struct.Point, ptr %31, i32 0, i32 0
  %33 = load double, ptr %32, align 8
  %34 = load ptr, ptr %4, align 8
  %35 = getelementptr inbounds nuw %struct.BOX, ptr %34, i32 0, i32 1
  %36 = getelementptr inbounds nuw %struct.Point, ptr %35, i32 0, i32 0
  %37 = load double, ptr %36, align 8
  %38 = call zeroext i1 @float8_eq(double noundef %33, double noundef %37)
  br i1 %38, label %39, label %69

39:                                               ; preds = %29
  %40 = load ptr, ptr %3, align 8
  %41 = getelementptr inbounds nuw %struct.BOX, ptr %40, i32 0, i32 1
  %42 = getelementptr inbounds nuw %struct.Point, ptr %41, i32 0, i32 1
  %43 = load double, ptr %42, align 8
  %44 = load ptr, ptr %4, align 8
  %45 = getelementptr inbounds nuw %struct.BOX, ptr %44, i32 0, i32 1
  %46 = getelementptr inbounds nuw %struct.Point, ptr %45, i32 0, i32 1
  %47 = load double, ptr %46, align 8
  %48 = call zeroext i1 @float8_eq(double noundef %43, double noundef %47)
  br i1 %48, label %49, label %69

49:                                               ; preds = %39
  %50 = load ptr, ptr %3, align 8
  %51 = getelementptr inbounds nuw %struct.BOX, ptr %50, i32 0, i32 0
  %52 = getelementptr inbounds nuw %struct.Point, ptr %51, i32 0, i32 0
  %53 = load double, ptr %52, align 8
  %54 = load ptr, ptr %4, align 8
  %55 = getelementptr inbounds nuw %struct.BOX, ptr %54, i32 0, i32 0
  %56 = getelementptr inbounds nuw %struct.Point, ptr %55, i32 0, i32 0
  %57 = load double, ptr %56, align 8
  %58 = call zeroext i1 @float8_eq(double noundef %53, double noundef %57)
  br i1 %58, label %59, label %69

59:                                               ; preds = %49
  %60 = load ptr, ptr %3, align 8
  %61 = getelementptr inbounds nuw %struct.BOX, ptr %60, i32 0, i32 0
  %62 = getelementptr inbounds nuw %struct.Point, ptr %61, i32 0, i32 1
  %63 = load double, ptr %62, align 8
  %64 = load ptr, ptr %4, align 8
  %65 = getelementptr inbounds nuw %struct.BOX, ptr %64, i32 0, i32 0
  %66 = getelementptr inbounds nuw %struct.Point, ptr %65, i32 0, i32 1
  %67 = load double, ptr %66, align 8
  %68 = call zeroext i1 @float8_eq(double noundef %63, double noundef %67)
  br label %69

69:                                               ; preds = %59, %49, %39, %29
  %70 = phi i1 [ false, %49 ], [ false, %39 ], [ false, %29 ], [ %68, %59 ]
  %71 = load ptr, ptr %5, align 8
  %72 = zext i1 %70 to i8
  store i8 %72, ptr %71, align 1
  br label %83

73:                                               ; preds = %26, %1
  %74 = load ptr, ptr %3, align 8
  %75 = icmp eq ptr %74, null
  br i1 %75, label %76, label %79

76:                                               ; preds = %73
  %77 = load ptr, ptr %4, align 8
  %78 = icmp eq ptr %77, null
  br label %79

79:                                               ; preds = %76, %73
  %80 = phi i1 [ false, %73 ], [ %78, %76 ]
  %81 = load ptr, ptr %5, align 8
  %82 = zext i1 %80 to i8
  store i8 %82, ptr %81, align 1
  br label %83

83:                                               ; preds = %79, %69
  %84 = load ptr, ptr %5, align 8
  %85 = call i64 @PointerGetDatum(ptr noundef %84)
  call void @llvm.lifetime.end.p0(i64 8, ptr %5) #10
  call void @llvm.lifetime.end.p0(i64 8, ptr %4) #10
  call void @llvm.lifetime.end.p0(i64 8, ptr %3) #10
  ret i64 %85
}