; Function Attrs: mustprogress nofree norecurse nosync nounwind willreturn memory(readwrite, inaccessiblemem: none) uwtable
define dso_local i64 @gist_box_same(ptr noundef readonly captures(none) %0) local_unnamed_addr #7 {
  %2 = getelementptr inbounds nuw i8, ptr %0, i64 32
  %3 = load i64, ptr %2, align 8
  %4 = inttoptr i64 %3 to ptr
  %5 = getelementptr inbounds nuw i8, ptr %0, i64 48
  %6 = load i64, ptr %5, align 8
  %7 = inttoptr i64 %6 to ptr
  %8 = getelementptr inbounds nuw i8, ptr %0, i64 64
  %9 = load i64, ptr %8, align 8
  %10 = icmp ne i64 %3, 0
  %11 = icmp ne i64 %6, 0
  %or.cond = select i1 %10, i1 %11, i1 false
  br i1 %or.cond, label %12, label %42

12:                                               ; preds = %1
  %13 = getelementptr inbounds nuw i8, ptr %4, i64 16
  %14 = load double, ptr %13, align 8
  %15 = getelementptr inbounds nuw i8, ptr %7, i64 16
  %16 = load double, ptr %15, align 8
  %17 = fcmp uno double %14, 0.000000e+00
  %18 = fcmp uno double %16, 0.000000e+00
  %19 = fcmp oeq double %14, %16
  %.in.i = select i1 %17, i1 %18, i1 %19
  br i1 %.in.i, label %20, label %46

20:                                               ; preds = %12
  %21 = getelementptr inbounds nuw i8, ptr %4, i64 24
  %22 = load double, ptr %21, align 8
  %23 = getelementptr inbounds nuw i8, ptr %7, i64 24
  %24 = load double, ptr %23, align 8
  %25 = fcmp uno double %22, 0.000000e+00
  %26 = fcmp uno double %24, 0.000000e+00
  %27 = fcmp oeq double %22, %24
  %.in.i20 = select i1 %25, i1 %26, i1 %27
  br i1 %.in.i20, label %28, label %46

28:                                               ; preds = %20
  %29 = load double, ptr %4, align 8
  %30 = load double, ptr %7, align 8
  %31 = fcmp uno double %29, 0.000000e+00
  %32 = fcmp uno double %30, 0.000000e+00
  %33 = fcmp oeq double %29, %30
  %.in.i21 = select i1 %31, i1 %32, i1 %33
  br i1 %.in.i21, label %34, label %46

34:                                               ; preds = %28
  %35 = getelementptr inbounds nuw i8, ptr %4, i64 8
  %36 = load double, ptr %35, align 8
  %37 = getelementptr inbounds nuw i8, ptr %7, i64 8
  %38 = load double, ptr %37, align 8
  %39 = fcmp uno double %36, 0.000000e+00
  %40 = fcmp uno double %38, 0.000000e+00
  %41 = fcmp oeq double %36, %38
  %.in.i22 = select i1 %39, i1 %40, i1 %41
  br label %46

42:                                               ; preds = %1
  %43 = icmp eq i64 %3, 0
  %44 = icmp eq i64 %6, 0
  %45 = select i1 %43, i1 %44, i1 false
  br label %46

46:                                               ; preds = %12, %20, %28, %34, %42
  %storemerge.in = phi i1 [ %45, %42 ], [ false, %28 ], [ false, %20 ], [ false, %12 ], [ %.in.i22, %34 ]
  %47 = inttoptr i64 %9 to ptr
  %storemerge = zext i1 %storemerge.in to i8
  store i8 %storemerge, ptr %47, align 1
  ret i64 %9
}